; Function Attrs: mustprogress nofree norecurse nosync nounwind willreturn memory(read, argmem: readwrite, inaccessiblemem: none) uwtable
define hidden nonnull ptr @X11_Vulkan_GetInstanceExtensions(ptr noundef readonly captures(none) %0, ptr noundef writeonly captures(address_is_null) %1) local_unnamed_addr #3 {
  %3 = getelementptr inbounds nuw i8, ptr %0, i64 1656
  %4 = load ptr, ptr %3, align 8
  %5 = getelementptr inbounds nuw i8, ptr %4, i64 1744
  %6 = load ptr, ptr %5, align 8
  %.not8 = icmp eq ptr %1, null
  br i1 %.not8, label %7, label %.sink.split

.sink.split:                                      ; preds = %2
  store i32 2, ptr %1, align 4
  br label %7

7:                                                ; preds = %2, %.sink.split
  %.not = icmp eq ptr %6, null
  %X11_Vulkan_GetInstanceExtensions.extensionsForXlib.X11_Vulkan_GetInstanceExtensions.extensionsForXCB = select i1 %.not, ptr @X11_Vulkan_GetInstanceExtensions.extensionsForXlib, ptr @X11_Vulkan_GetInstanceExtensions.extensionsForXCB
  ret ptr %X11_Vulkan_GetInstanceExtensions.extensionsForXlib.X11_Vulkan_GetInstanceExtensions.extensionsForXCB
}